; ModuleID = 'source-C-CXX/61/1681.c'
source_filename = "source-C-CXX/61/1681.c"
target datalayout = "e-m:e-p270:32:32-p271:32:32-p272:64:64-i64:64-f80:128-n8:16:32:64-S128"
target triple = "x86_64-pc-linux-gnu"

; Function Attrs: nounwind sspstrong uwtable
define dso_local void @main() local_unnamed_addr #0 {
  %1 = alloca [200 x i8], align 16
  %2 = alloca [200 x i8], align 16
  %3 = getelementptr inbounds [200 x i8], [200 x i8]* %1, i64 0, i64 0
  call void @llvm.lifetime.start.p0i8(i64 200, i8* nonnull %3) #5
  %4 = getelementptr inbounds [200 x i8], [200 x i8]* %2, i64 0, i64 0
  call void @llvm.lifetime.start.p0i8(i64 200, i8* nonnull %4) #5
  %5 = call i32 (i8*, ...) bitcast (i32 (...)* @gets to i32 (i8*, ...)*)(i8* nonnull %3) #5
  %6 = call i64 @strlen(i8* noundef nonnull %3) #6
  %7 = trunc i64 %6 to i32
  %8 = icmp sgt i32 %7, 0
  br i1 %8, label %9, label %48

9:                                                ; preds = %0
  %10 = and i64 %6, 4294967295
  br label %16

11:                                               ; preds = %36
  %12 = icmp slt i32 %37, 1
  br i1 %12, label %48, label %13

13:                                               ; preds = %11
  %14 = add nuw i32 %37, 1
  %15 = zext i32 %14 to i64
  br label %40

16:                                               ; preds = %9, %36
  %17 = phi i64 [ 0, %9 ], [ %38, %36 ]
  %18 = phi i32 [ 0, %9 ], [ %37, %36 ]
  %19 = getelementptr inbounds [200 x i8], [200 x i8]* %1, i64 0, i64 %17
  %20 = load i8, i8* %19, align 1, !tbaa !5
  %21 = and i8 %20, -33
  %22 = add i8 %21, -65
  %23 = icmp ugt i8 %22, 25
  %24 = icmp eq i8 %20, 32
  %25 = select i1 %23, i1 %24, i1 false
  br i1 %25, label %26, label %31

26:                                               ; preds = %16
  %27 = add nuw nsw i64 %17, 1
  %28 = getelementptr inbounds [200 x i8], [200 x i8]* %1, i64 0, i64 %27
  %29 = load i8, i8* %28, align 1, !tbaa !5
  %30 = icmp eq i8 %29, 32
  br i1 %30, label %36, label %31

31:                                               ; preds = %26, %16
  %32 = phi i8 [ %20, %16 ], [ 32, %26 ]
  %33 = add nsw i32 %18, 1
  %34 = sext i32 %33 to i64
  %35 = getelementptr inbounds [200 x i8], [200 x i8]* %2, i64 0, i64 %34
  store i8 %32, i8* %35, align 1, !tbaa !5
  br label %36

36:                                               ; preds = %31, %26
  %37 = phi i32 [ %18, %26 ], [ %33, %31 ]
  %38 = add nuw nsw i64 %17, 1
  %39 = icmp eq i64 %38, %10
  br i1 %39, label %11, label %16, !llvm.loop !8

40:                                               ; preds = %13, %40
  %41 = phi i64 [ 1, %13 ], [ %46, %40 ]
  %42 = getelementptr inbounds [200 x i8], [200 x i8]* %2, i64 0, i64 %41
  %43 = load i8, i8* %42, align 1, !tbaa !5
  %44 = sext i8 %43 to i32
  %45 = call i32 @putchar(i32 %44)
  %46 = add nuw nsw i64 %41, 1
  %47 = icmp eq i64 %46, %15
  br i1 %47, label %48, label %40, !llvm.loop !10

48:                                               ; preds = %40, %0, %11
  call void @llvm.lifetime.end.p0i8(i64 200, i8* nonnull %4) #5
  call void @llvm.lifetime.end.p0i8(i64 200, i8* nonnull %3) #5
  ret void
}

; Function Attrs: argmemonly mustprogress nofree nosync nounwind willreturn
declare void @llvm.lifetime.start.p0i8(i64 immarg, i8* nocapture) #1

declare i32 @gets(...) local_unnamed_addr #2

; Function Attrs: argmemonly mustprogress nofree nounwind readonly willreturn
declare i64 @strlen(i8* nocapture) local_unnamed_addr #3

; Function Attrs: argmemonly mustprogress nofree nosync nounwind willreturn
declare void @llvm.lifetime.end.p0i8(i64 immarg, i8* nocapture) #1

; Function Attrs: nofree nounwind
declare noundef i32 @putchar(i32 noundef) local_unnamed_addr #4


!llvm.module.flags = !{!0, !1, !2, !3}
!llvm.ident = !{!4}

!0 = !{i32 1, !"wchar_size", i32 4}
!1 = !{i32 7, !"PIC Level", i32 2}
!2 = !{i32 7, !"PIE Level", i32 2}
!3 = !{i32 7, !"uwtable", i32 1}
!4 = !{!"clang version 13.0.0"}
!5 = !{!6, !6, i64 0}
!6 = !{!"omnipotent char", !7, i64 0}
!7 = !{!"Simple C/C++ TBAA"}
!8 = distinct !{!8, !9}
!9 = !{!"llvm.loop.mustprogress"}
!10 = distinct !{!10, !9}
